; Function Attrs: mustprogress uwtable
define void @_ZN6casadi8Importer11deserializeERNS_19DeserializingStreamE(ptr dead_on_unwind noalias writable sret(%"class.casadi::Importer") align 8 %0, ptr noundef nonnull align 8 dereferenceable(41) %1) local_unnamed_addr #3 align 2 personality ptr @__gxx_personality_v0 {
  %3 = tail call noundef ptr @_ZN6casadi16ImporterInternal11deserializeERNS_19DeserializingStreamE(ptr noundef nonnull align 8 dereferenceable(41) %1)
  tail call void @_ZN6casadi8ImporterC1Ev(ptr noundef nonnull align 8 dereferenceable(8) %0)
  invoke void @_ZN6casadi12SharedObject3ownEPNS_20SharedObjectInternalE(ptr noundef nonnull align 8 dereferenceable(8) %0, ptr noundef %3)
          to label %_ZN6casadi8Importer6createEPNS_16ImporterInternalE.exit unwind label %4

4:                                                ; preds = %2
  %5 = landingpad { ptr, i32 }
          cleanup
  tail call void @_ZN6casadi12SharedObjectD2Ev(ptr noundef nonnull align 8 dereferenceable(8) %0) #17
  resume { ptr, i32 } %5

_ZN6casadi8Importer6createEPNS_16ImporterInternalE.exit: ; preds = %2
  ret void
}